; Function Attrs: mustprogress nofree nounwind willreturn memory(read) uwtable
define dso_local i32 @_ZNK5clang22CXXScalarValueInitExpr11getBeginLocEv(ptr noundef nonnull readonly align 8 captures(none) dereferenceable(24) %0) local_unnamed_addr #6 align 2 {
  %2 = alloca %"class.clang::TypeLoc", align 8
  %3 = getelementptr inbounds nuw i8, ptr %0, i64 16
  %4 = load ptr, ptr %3, align 8
  %.not = icmp eq ptr %4, null
  br i1 %.not, label %10, label %5

5:                                                ; preds = %1
  %.sroa.0.0.copyload.i = load i64, ptr %4, align 8
  %6 = getelementptr inbounds nuw i8, ptr %4, i64 8
  %7 = inttoptr i64 %.sroa.0.0.copyload.i to ptr
  store ptr %7, ptr %2, align 8
  %8 = getelementptr inbounds nuw i8, ptr %2, i64 8
  store ptr %6, ptr %8, align 8
  %9 = call i32 @_ZNK5clang7TypeLoc11getBeginLocEv(ptr noundef nonnull align 8 dereferenceable(16) %2) #16
  br label %12

10:                                               ; preds = %1
  %11 = getelementptr inbounds nuw i8, ptr %0, i64 4
  %.sroa.0.0.copyload.i1 = load i32, ptr %11, align 4
  br label %12

12:                                               ; preds = %10, %5
  %.sroa.0.0 = phi i32 [ %9, %5 ], [ %.sroa.0.0.copyload.i1, %10 ]
  ret i32 %.sroa.0.0
}